target datalayout = "e-m:e-p270:32:32-p271:32:32-p272:64:64-i64:64-i128:128-f80:128-n8:16:32:64-S128"
target triple = "x86_64-pc-linux-gnu"

%struct.SN_env = type { ptr, i32, i32, i32, i32, i32, ptr, ptr }

; Function Attrs: nounwind uwtable
define internal i32 @r_mark_ysA(ptr noundef %0) #0 {
  %2 = alloca i32, align 4
  %3 = alloca ptr, align 8
  %4 = alloca i32, align 4
  %5 = alloca i32, align 4
  store ptr %0, ptr %3, align 8
  %6 = load ptr, ptr %3, align 8
  %7 = getelementptr inbounds nuw %struct.SN_env, ptr %6, i32 0, i32 1
  %8 = load i32, ptr %7, align 8
  %9 = sub i32 %8, 1
  %10 = load ptr, ptr %3, align 8
  %11 = getelementptr inbounds nuw %struct.SN_env, ptr %10, i32 0, i32 3
  %12 = load i32, ptr %11, align 8
  %13 = icmp sle i32 %9, %12
  br i1 %13, label %44, label %14

14:                                               ; preds = %1
  %15 = load ptr, ptr %3, align 8
  %16 = getelementptr inbounds nuw %struct.SN_env, ptr %15, i32 0, i32 0
  %17 = load ptr, ptr %16, align 8
  %18 = load ptr, ptr %3, align 8
  %19 = getelementptr inbounds nuw %struct.SN_env, ptr %18, i32 0, i32 1
  %20 = load i32, ptr %19, align 8
  %21 = sub i32 %20, 1
  %22 = sext i32 %21 to i64
  %23 = getelementptr inbounds i8, ptr %17, i64 %22
  %24 = load i8, ptr %23, align 1
  %25 = zext i8 %24 to i32
  %26 = ashr i32 %25, 5
  %27 = icmp ne i32 %26, 3
  br i1 %27, label %44, label %28

28:                                               ; preds = %14
  %29 = load ptr, ptr %3, align 8
  %30 = getelementptr inbounds nuw %struct.SN_env, ptr %29, i32 0, i32 0
  %31 = load ptr, ptr %30, align 8
  %32 = load ptr, ptr %3, align 8
  %33 = getelementptr inbounds nuw %struct.SN_env, ptr %32, i32 0, i32 1
  %34 = load i32, ptr %33, align 8
  %35 = sub i32 %34, 1
  %36 = sext i32 %35 to i64
  %37 = getelementptr inbounds i8, ptr %31, i64 %36
  %38 = load i8, ptr %37, align 1
  %39 = zext i8 %38 to i32
  %40 = and i32 %39, 31
  %41 = ashr i32 26658, %40
  %42 = and i32 %41, 1
  %43 = icmp ne i32 %42, 0
  br i1 %43, label %45, label %44

44:                                               ; preds = %28, %14, %1
  store i32 0, ptr %2, align 4
  br label %61

45:                                               ; preds = %28
  %46 = load ptr, ptr %3, align 8
  %47 = call i32 @find_among_b(ptr noundef %46, ptr noundef @a_21, i32 noundef 8)
  %48 = icmp ne i32 %47, 0
  br i1 %48, label %50, label %49

49:                                               ; preds = %45
  store i32 0, ptr %2, align 4
  br label %61

50:                                               ; preds = %45
  call void @llvm.lifetime.start.p0(i64 4, ptr %4) #3
  %51 = load ptr, ptr %3, align 8
  %52 = call i32 @r_mark_suffix_with_optional_y_consonant(ptr noundef %51)
  store i32 %52, ptr %4, align 4
  %53 = load i32, ptr %4, align 4
  %54 = icmp sle i32 %53, 0
  br i1 %54, label %55, label %57

55:                                               ; preds = %50
  %56 = load i32, ptr %4, align 4
  store i32 %56, ptr %2, align 4
  store i32 1, ptr %5, align 4
  br label %58

57:                                               ; preds = %50
  store i32 0, ptr %5, align 4
  br label %58

58:                                               ; preds = %57, %55
  call void @llvm.lifetime.end.p0(i64 4, ptr %4) #3
  %59 = load i32, ptr %5, align 4
  switch i32 %59, label %63 [
    i32 0, label %60
    i32 1, label %61
  ]

60:                                               ; preds = %58
  store i32 1, ptr %2, align 4
  br label %61

61:                                               ; preds = %60, %58, %49, %44
  %62 = load i32, ptr %2, align 4
  ret i32 %62

63:                                               ; preds = %58
  unreachable
}