; Function Attrs: nounwind uwtable
define internal fastcc range(i32 0, 2) i32 @r_mark_ysA(ptr noundef %0) unnamed_addr #0 {
  %2 = getelementptr inbounds nuw i8, ptr %0, i64 8
  %3 = load i32, ptr %2, align 8
  %4 = add i32 %3, -1
  %5 = getelementptr inbounds nuw i8, ptr %0, i64 16
  %6 = load i32, ptr %5, align 8
  %.not = icmp sgt i32 %4, %6
  br i1 %.not, label %7, label %21

7:                                                ; preds = %1
  %8 = load ptr, ptr %0, align 8
  %9 = sext i32 %4 to i64
  %10 = getelementptr inbounds i8, ptr %8, i64 %9
  %11 = load i8, ptr %10, align 1
  %12 = zext i8 %11 to i32
  %.mask = and i32 %12, 224
  %.not13 = icmp eq i32 %.mask, 96
  br i1 %.not13, label %13, label %21

13:                                               ; preds = %7
  %14 = and i32 %12, 31
  %15 = shl nuw i32 1, %14
  %16 = and i32 %15, 26658
  %.not14 = icmp eq i32 %16, 0
  br i1 %.not14, label %21, label %17

17:                                               ; preds = %13
  %18 = tail call i32 @find_among_b(ptr noundef nonnull %0, ptr noundef nonnull @a_21, i32 noundef 8) #3
  %.not15 = icmp eq i32 %18, 0
  br i1 %.not15, label %21, label %19

19:                                               ; preds = %17
  %20 = tail call fastcc i32 @r_mark_suffix_with_optional_y_consonant(ptr noundef nonnull %0)
  br label %21

21:                                               ; preds = %19, %17, %1, %7, %13
  %.011 = phi i32 [ 0, %13 ], [ 0, %7 ], [ 0, %1 ], [ 0, %17 ], [ %20, %19 ]
  ret i32 %.011
}